target datalayout = "e-m:e-p270:32:32-p271:32:32-p272:64:64-i64:64-i128:128-f80:128-n8:16:32:64-S128"
target triple = "x86_64-pc-linux-gnu"

%struct.AVFifo = type { ptr, i64, i64, i64, i64, i32, i32, i64 }

@.str = private unnamed_addr constant [30 x i8] c"Assertion %s failed at %s:%d\0A\00", align 1
@.str.1 = private unnamed_addr constant [17 x i8] c"cur_size >= size\00", align 1
@.str.2 = private unnamed_addr constant [17 x i8] c"libavutil/fifo.c\00", align 1

; Function Attrs: nounwind uwtable
define i64 @av_fifo_can_read(ptr noundef %0) #0 {
  %2 = alloca i64, align 8
  %3 = alloca ptr, align 8
  store ptr %0, ptr %3, align 8, !tbaa !12
  %4 = load ptr, ptr %3, align 8, !tbaa !12
  %5 = getelementptr inbounds nuw %struct.AVFifo, ptr %4, i32 0, i32 4
  %6 = load i64, ptr %5, align 8, !tbaa !22
  %7 = load ptr, ptr %3, align 8, !tbaa !12
  %8 = getelementptr inbounds nuw %struct.AVFifo, ptr %7, i32 0, i32 3
  %9 = load i64, ptr %8, align 8, !tbaa !23
  %10 = icmp ule i64 %6, %9
  br i1 %10, label %11, label %28

11:                                               ; preds = %1
  %12 = load ptr, ptr %3, align 8, !tbaa !12
  %13 = getelementptr inbounds nuw %struct.AVFifo, ptr %12, i32 0, i32 5
  %14 = load i32, ptr %13, align 8, !tbaa !19
  %15 = icmp ne i32 %14, 0
  br i1 %15, label %28, label %16

16:                                               ; preds = %11
  %17 = load ptr, ptr %3, align 8, !tbaa !12
  %18 = getelementptr inbounds nuw %struct.AVFifo, ptr %17, i32 0, i32 2
  %19 = load i64, ptr %18, align 8, !tbaa !17
  %20 = load ptr, ptr %3, align 8, !tbaa !12
  %21 = getelementptr inbounds nuw %struct.AVFifo, ptr %20, i32 0, i32 3
  %22 = load i64, ptr %21, align 8, !tbaa !23
  %23 = sub i64 %19, %22
  %24 = load ptr, ptr %3, align 8, !tbaa !12
  %25 = getelementptr inbounds nuw %struct.AVFifo, ptr %24, i32 0, i32 4
  %26 = load i64, ptr %25, align 8, !tbaa !22
  %27 = add i64 %23, %26
  store i64 %27, ptr %2, align 8
  br label %36

28:                                               ; preds = %11, %1
  %29 = load ptr, ptr %3, align 8, !tbaa !12
  %30 = getelementptr inbounds nuw %struct.AVFifo, ptr %29, i32 0, i32 4
  %31 = load i64, ptr %30, align 8, !tbaa !22
  %32 = load ptr, ptr %3, align 8, !tbaa !12
  %33 = getelementptr inbounds nuw %struct.AVFifo, ptr %32, i32 0, i32 3
  %34 = load i64, ptr %33, align 8, !tbaa !23
  %35 = sub i64 %31, %34
  store i64 %35, ptr %2, align 8
  br label %36

36:                                               ; preds = %28, %16
  %37 = load i64, ptr %2, align 8
  ret i64 %37
}

; Function Attrs: nounwind uwtable
define void @av_fifo_drain2(ptr noundef %0, i64 noundef %1) #0 {
  %3 = alloca ptr, align 8
  %4 = alloca i64, align 8
  %5 = alloca i64, align 8
  store ptr %0, ptr %3, align 8, !tbaa !12
  store i64 %1, ptr %4, align 8, !tbaa !4
  call void @llvm.lifetime.start.p0(i64 8, ptr %5) #5
  %6 = load ptr, ptr %3, align 8, !tbaa !12
  %7 = call i64 @av_fifo_can_read(ptr noundef %6)
  store i64 %7, ptr %5, align 8, !tbaa !4
  br label %8

8:                                                ; preds = %2
  %9 = load i64, ptr %5, align 8, !tbaa !4
  %10 = load i64, ptr %4, align 8, !tbaa !4
  %11 = icmp uge i64 %9, %10
  br i1 %11, label %13, label %12

12:                                               ; preds = %8
  call void (ptr, i32, ptr, ...) @av_log(ptr noundef null, i32 noundef 0, ptr noundef @.str, ptr noundef @.str.1, ptr noundef @.str.2, i32 noundef 270)
  call void @abort() #6
  unreachable

13:                                               ; preds = %8
  br label %14

14:                                               ; preds = %13
  br label %15

15:                                               ; preds = %14
  %16 = load i64, ptr %5, align 8, !tbaa !4
  %17 = load i64, ptr %4, align 8, !tbaa !4
  %18 = icmp eq i64 %16, %17
  br i1 %18, label %19, label %22

19:                                               ; preds = %15
  %20 = load ptr, ptr %3, align 8, !tbaa !12
  %21 = getelementptr inbounds nuw %struct.AVFifo, ptr %20, i32 0, i32 5
  store i32 1, ptr %21, align 8, !tbaa !19
  br label %22

22:                                               ; preds = %19, %15
  %23 = load ptr, ptr %3, align 8, !tbaa !12
  %24 = getelementptr inbounds nuw %struct.AVFifo, ptr %23, i32 0, i32 3
  %25 = load i64, ptr %24, align 8, !tbaa !23
  %26 = load ptr, ptr %3, align 8, !tbaa !12
  %27 = getelementptr inbounds nuw %struct.AVFifo, ptr %26, i32 0, i32 2
  %28 = load i64, ptr %27, align 8, !tbaa !17
  %29 = load i64, ptr %4, align 8, !tbaa !4
  %30 = sub i64 %28, %29
  %31 = icmp uge i64 %25, %30
  br i1 %31, label %32, label %42

32:                                               ; preds = %22
  %33 = load ptr, ptr %3, align 8, !tbaa !12
  %34 = getelementptr inbounds nuw %struct.AVFifo, ptr %33, i32 0, i32 2
  %35 = load i64, ptr %34, align 8, !tbaa !17
  %36 = load i64, ptr %4, align 8, !tbaa !4
  %37 = sub i64 %35, %36
  %38 = load ptr, ptr %3, align 8, !tbaa !12
  %39 = getelementptr inbounds nuw %struct.AVFifo, ptr %38, i32 0, i32 3
  %40 = load i64, ptr %39, align 8, !tbaa !23
  %41 = sub i64 %40, %37
  store i64 %41, ptr %39, align 8, !tbaa !23
  br label %48

42:                                               ; preds = %22
  %43 = load i64, ptr %4, align 8, !tbaa !4
  %44 = load ptr, ptr %3, align 8, !tbaa !12
  %45 = getelementptr inbounds nuw %struct.AVFifo, ptr %44, i32 0, i32 3
  %46 = load i64, ptr %45, align 8, !tbaa !23
  %47 = add i64 %46, %43
  store i64 %47, ptr %45, align 8, !tbaa !23
  br label %48

48:                                               ; preds = %42, %32
  call void @llvm.lifetime.end.p0(i64 8, ptr %5) #5
  ret void
}

; Function Attrs: nounwind uwtable
define i32 @av_fifo_read_to_cb(ptr noundef %0, ptr noundef %1, ptr noundef %2, ptr noundef %3) #0 {
  %5 = alloca ptr, align 8
  %6 = alloca ptr, align 8
  %7 = alloca ptr, align 8
  %8 = alloca ptr, align 8
  %9 = alloca i32, align 4
  store ptr %0, ptr %5, align 8, !tbaa !12
  store ptr %1, ptr %6, align 8, !tbaa !10
  store ptr %2, ptr %7, align 8, !tbaa !10
  store ptr %3, ptr %8, align 8, !tbaa !25
  call void @llvm.lifetime.start.p0(i64 4, ptr %9) #5
  %10 = load ptr, ptr %5, align 8, !tbaa !12
  %11 = load ptr, ptr %8, align 8, !tbaa !25
  %12 = load ptr, ptr %6, align 8, !tbaa !10
  %13 = load ptr, ptr %7, align 8, !tbaa !10
  %14 = call i32 @fifo_peek_common(ptr noundef %10, ptr noundef null, ptr noundef %11, i64 noundef 0, ptr noundef %12, ptr noundef %13)
  store i32 %14, ptr %9, align 4, !tbaa !8
  %15 = load ptr, ptr %5, align 8, !tbaa !12
  %16 = load ptr, ptr %8, align 8, !tbaa !25
  %17 = load i64, ptr %16, align 8, !tbaa !4
  call void @av_fifo_drain2(ptr noundef %15, i64 noundef %17)
  %18 = load i32, ptr %9, align 4, !tbaa !8
  call void @llvm.lifetime.end.p0(i64 4, ptr %9) #5
  ret i32 %18
}