; Function Attrs: nounwind uwtable
define i32 @av_fifo_read_to_cb(ptr noundef captures(none) %0, ptr noundef readonly captures(address_is_null) %1, ptr noundef %2, ptr noundef captures(none) %3) local_unnamed_addr #0 {
  %5 = tail call fastcc i32 @fifo_peek_common(ptr noundef %0, ptr noundef null, ptr noundef %3, i64 noundef 0, ptr noundef %1, ptr noundef %2)
  %6 = load i64, ptr %3, align 8, !tbaa !19
  %7 = getelementptr inbounds nuw i8, ptr %0, i64 32
  %8 = load i64, ptr %7, align 8, !tbaa !17
  %9 = getelementptr inbounds nuw i8, ptr %0, i64 24
  %10 = load i64, ptr %9, align 8, !tbaa !18
  %.not.i.i = icmp ugt i64 %8, %10
  br i1 %.not.i.i, label %19, label %11

11:                                               ; preds = %4
  %12 = getelementptr inbounds nuw i8, ptr %0, i64 40
  %13 = load i32, ptr %12, align 8, !tbaa !14
  %.not10.i.i = icmp eq i32 %13, 0
  br i1 %.not10.i.i, label %14, label %19

14:                                               ; preds = %11
  %15 = getelementptr inbounds nuw i8, ptr %0, i64 16
  %16 = load i64, ptr %15, align 8, !tbaa !12
  %17 = sub i64 %8, %10
  %18 = add i64 %17, %16
  br label %av_fifo_can_read.exit.i

19:                                               ; preds = %11, %4
  %20 = sub i64 %8, %10
  br label %av_fifo_can_read.exit.i

av_fifo_can_read.exit.i:                          ; preds = %19, %14
  %.0.i.i = phi i64 [ %20, %19 ], [ %18, %14 ]
  %.not.i = icmp ult i64 %.0.i.i, %6
  br i1 %.not.i, label %21, label %22

21:                                               ; preds = %av_fifo_can_read.exit.i
  tail call void (ptr, i32, ptr, ...) @av_log(ptr noundef null, i32 noundef 0, ptr noundef nonnull @.str, ptr noundef nonnull @.str.1, ptr noundef nonnull @.str.2, i32 noundef 270) #10
  tail call void @abort() #11
  unreachable

22:                                               ; preds = %av_fifo_can_read.exit.i
  %23 = icmp eq i64 %.0.i.i, %6
  br i1 %23, label %24, label %av_fifo_drain2.exit

24:                                               ; preds = %22
  %25 = getelementptr inbounds nuw i8, ptr %0, i64 40
  store i32 1, ptr %25, align 8, !tbaa !14
  br label %av_fifo_drain2.exit

av_fifo_drain2.exit:                              ; preds = %22, %24
  %26 = getelementptr inbounds nuw i8, ptr %0, i64 16
  %27 = load i64, ptr %26, align 8, !tbaa !12
  %28 = sub i64 %27, %6
  %.not16.i = icmp ult i64 %10, %28
  %29 = sub i64 0, %28
  %storemerge.p.i = select i1 %.not16.i, i64 %6, i64 %29
  %storemerge.i = add i64 %storemerge.p.i, %10
  store i64 %storemerge.i, ptr %9, align 8, !tbaa !18
  ret i32 %5
}